; Function Attrs: nounwind uwtable
define dso_local noundef ptr @list_copy_deep(ptr noundef readonly captures(address_is_null) %0) local_unnamed_addr #0 {
  %2 = icmp eq ptr %0, null
  br i1 %2, label %.loopexit, label %3

3:                                                ; preds = %1
  %4 = load i32, ptr %0, align 8
  %5 = getelementptr inbounds nuw i8, ptr %0, i64 4
  %6 = load i32, ptr %5, align 4
  %7 = add i32 %6, 3
  %8 = tail call i32 @llvm.smax.i32(i32 %7, i32 8)
  %9 = tail call range(i32 1, 32) i32 @llvm.ctpop.i32(i32 %8)
  %10 = icmp samesign ult i32 %9, 2
  %11 = tail call range(i32 0, 33) i32 @llvm.ctlz.i32(i32 %8, i1 true)
  %12 = xor i32 %11, 31
  %13 = shl nuw i32 2, %12
  %.0.i.i = select i1 %10, i32 %8, i32 %13
  %14 = add i32 %.0.i.i, -3
  %15 = zext nneg i32 %14 to i64
  %16 = shl nuw nsw i64 %15, 3
  %17 = add nuw nsw i64 %16, 24
  %18 = tail call ptr @palloc(i64 noundef %17) #9
  store i32 %4, ptr %18, align 8
  %19 = getelementptr inbounds nuw i8, ptr %18, i64 4
  store i32 %6, ptr %19, align 4
  %20 = getelementptr inbounds nuw i8, ptr %18, i64 8
  store i32 %14, ptr %20, align 8
  %21 = getelementptr inbounds nuw i8, ptr %18, i64 24
  %22 = getelementptr inbounds nuw i8, ptr %18, i64 16
  store ptr %21, ptr %22, align 8
  %23 = icmp sgt i32 %6, 0
  br i1 %23, label %.lr.ph, label %.loopexit

.lr.ph:                                           ; preds = %3
  %24 = getelementptr inbounds nuw i8, ptr %0, i64 16
  br label %25

25:                                               ; preds = %.lr.ph, %25
  %indvars.iv = phi i64 [ 0, %.lr.ph ], [ %indvars.iv.next, %25 ]
  %26 = load ptr, ptr %24, align 8
  %27 = getelementptr inbounds nuw %union.ListCell, ptr %26, i64 %indvars.iv
  %28 = load ptr, ptr %27, align 8
  %29 = tail call ptr @copyObjectImpl(ptr noundef %28) #9
  %30 = load ptr, ptr %22, align 8
  %31 = getelementptr inbounds nuw %union.ListCell, ptr %30, i64 %indvars.iv
  store ptr %29, ptr %31, align 8
  %indvars.iv.next = add nuw nsw i64 %indvars.iv, 1
  %32 = load i32, ptr %19, align 4
  %33 = sext i32 %32 to i64
  %34 = icmp slt i64 %indvars.iv.next, %33
  br i1 %34, label %25, label %.loopexit, !llvm.loop !10

.loopexit:                                        ; preds = %25, %3, %1
  %.011 = phi ptr [ null, %1 ], [ %18, %3 ], [ %18, %25 ]
  ret ptr %.011
}